target datalayout = "e-m:e-p270:32:32-p271:32:32-p272:64:64-i64:64-i128:128-f80:128-n8:16:32:64-S128"
target triple = "x86_64-pc-linux-gnu"

%struct.expert_field = type { i32, i32 }
%struct._btatt_data_t = type { ptr, i8, i32 }

@ei_btatt_unexpected_data = internal global %struct.expert_field zeroinitializer, align 4
@hf_gatt_nordic_dfu_control_point_opcode = internal global i32 0, align 4
@hf_gatt_nordic_dfu_control_point_init_packet = internal global i32 0, align 4
@hf_gatt_nordic_dfu_control_point_image_type = internal global i32 0, align 4
@hf_gatt_nordic_dfu_control_point_number_of_bytes = internal global i32 0, align 4
@hf_gatt_nordic_dfu_control_point_number_of_packets = internal global i32 0, align 4
@hf_gatt_nordic_dfu_control_point_request_opcode = internal global i32 0, align 4
@hf_gatt_nordic_dfu_control_point_response_value = internal global i32 0, align 4

; Function Attrs: nounwind null_pointer_is_valid sspstrong uwtable
define internal zeroext i1 @is_readable_request(i8 noundef zeroext %0) #1 {
  %2 = alloca i8, align 1
  store i8 %0, ptr %2, align 1
  %3 = load i8, ptr %2, align 1
  %4 = zext i8 %3 to i32
  %5 = icmp eq i32 %4, 10
  br i1 %5, label %18, label %6

6:                                                ; preds = %1
  %7 = load i8, ptr %2, align 1
  %8 = zext i8 %7 to i32
  %9 = icmp eq i32 %8, 12
  br i1 %9, label %18, label %10

10:                                               ; preds = %6
  %11 = load i8, ptr %2, align 1
  %12 = zext i8 %11 to i32
  %13 = icmp eq i32 %12, 8
  br i1 %13, label %18, label %14

14:                                               ; preds = %10
  %15 = load i8, ptr %2, align 1
  %16 = zext i8 %15 to i32
  %17 = icmp eq i32 %16, 14
  br label %18

18:                                               ; preds = %14, %10, %6, %1
  %19 = phi i1 [ true, %10 ], [ true, %6 ], [ true, %1 ], [ %17, %14 ]
  ret i1 %19
}

; Function Attrs: null_pointer_is_valid sspstrong uwtable
define zeroext i1 @bluetooth_gatt_has_no_parameter(i8 noundef zeroext %0) #0 {
  %2 = alloca i8, align 1
  store i8 %0, ptr %2, align 1
  %3 = load i8, ptr %2, align 1
  %4 = call zeroext i1 @is_readable_request(i8 noundef zeroext %3)
  br i1 %4, label %13, label %5

5:                                                ; preds = %1
  %6 = load i8, ptr %2, align 1
  %7 = zext i8 %6 to i32
  %8 = icmp eq i32 %7, 19
  br i1 %8, label %13, label %9

9:                                                ; preds = %5
  %10 = load i8, ptr %2, align 1
  %11 = zext i8 %10 to i32
  %12 = icmp eq i32 %11, 30
  br label %13

13:                                               ; preds = %9, %5, %1
  %14 = phi i1 [ true, %5 ], [ true, %1 ], [ %12, %9 ]
  ret i1 %14
}

; Function Attrs: null_pointer_is_valid sspstrong uwtable
define internal i32 @dissect_btgatt_nordic_dfu_control_point(ptr noundef %0, ptr noundef %1, ptr noundef %2, ptr noundef %3) #0 {
  %5 = alloca i32, align 4
  %6 = alloca ptr, align 8
  %7 = alloca ptr, align 8
  %8 = alloca ptr, align 8
  %9 = alloca ptr, align 8
  %10 = alloca i32, align 4
  %11 = alloca i8, align 1
  %12 = alloca i8, align 1
  %13 = alloca i8, align 1
  %14 = alloca ptr, align 8
  %15 = alloca i32, align 4
  store ptr %0, ptr %6, align 8
  store ptr %1, ptr %7, align 8
  store ptr %2, ptr %8, align 8
  store ptr %3, ptr %9, align 8
  call void @llvm.lifetime.start.p0(i64 4, ptr %10) #12
  store i32 0, ptr %10, align 4
  call void @llvm.lifetime.start.p0(i64 1, ptr %11) #12
  call void @llvm.lifetime.start.p0(i64 1, ptr %12) #12
  call void @llvm.lifetime.start.p0(i64 1, ptr %13) #12
  call void @llvm.lifetime.start.p0(i64 8, ptr %14) #12
  %16 = load ptr, ptr %9, align 8
  store ptr %16, ptr %14, align 8
  %17 = load ptr, ptr %14, align 8
  %18 = getelementptr inbounds nuw %struct._btatt_data_t, ptr %17, i32 0, i32 1
  %19 = load i8, ptr %18, align 8
  %20 = call zeroext i1 @bluetooth_gatt_has_no_parameter(i8 noundef zeroext %19)
  br i1 %20, label %21, label %22

21:                                               ; preds = %4
  store i32 -1, ptr %5, align 4
  store i32 1, ptr %15, align 4
  br label %126

22:                                               ; preds = %4
  %23 = load ptr, ptr %8, align 8
  %24 = load i32, ptr @hf_gatt_nordic_dfu_control_point_opcode, align 4
  %25 = load ptr, ptr %6, align 8
  %26 = load i32, ptr %10, align 4
  %27 = call ptr @proto_tree_add_item(ptr noundef %23, i32 noundef %24, ptr noundef %25, i32 noundef %26, i32 noundef 1, i32 noundef 0)
  %28 = load ptr, ptr %6, align 8
  %29 = load i32, ptr %10, align 4
  %30 = call zeroext i8 @tvb_get_uint8(ptr noundef %28, i32 noundef %29)
  store i8 %30, ptr %11, align 1
  %31 = load i32, ptr %10, align 4
  %32 = add i32 %31, 1
  store i32 %32, ptr %10, align 4
  %33 = load i8, ptr %11, align 1
  %34 = zext i8 %33 to i32
  switch i32 %34, label %111 [
    i32 1, label %35
    i32 2, label %43
    i32 3, label %57
    i32 4, label %57
    i32 5, label %57
    i32 6, label %57
    i32 7, label %57
    i32 8, label %58
    i32 16, label %66
    i32 17, label %103
  ]

35:                                               ; preds = %22
  %36 = load ptr, ptr %8, align 8
  %37 = load i32, ptr @hf_gatt_nordic_dfu_control_point_image_type, align 4
  %38 = load ptr, ptr %6, align 8
  %39 = load i32, ptr %10, align 4
  %40 = call ptr @proto_tree_add_item(ptr noundef %36, i32 noundef %37, ptr noundef %38, i32 noundef %39, i32 noundef 1, i32 noundef 0)
  %41 = load i32, ptr %10, align 4
  %42 = add i32 %41, 1
  store i32 %42, ptr %10, align 4
  br label %111

43:                                               ; preds = %22
  %44 = load ptr, ptr %6, align 8
  %45 = load i32, ptr %10, align 4
  %46 = call i32 @tvb_reported_length_remaining(ptr noundef %44, i32 noundef %45)
  %47 = icmp sgt i32 %46, 0
  br i1 %47, label %48, label %56

48:                                               ; preds = %43
  %49 = load ptr, ptr %8, align 8
  %50 = load i32, ptr @hf_gatt_nordic_dfu_control_point_init_packet, align 4
  %51 = load ptr, ptr %6, align 8
  %52 = load i32, ptr %10, align 4
  %53 = call ptr @proto_tree_add_item(ptr noundef %49, i32 noundef %50, ptr noundef %51, i32 noundef %52, i32 noundef 1, i32 noundef 0)
  %54 = load i32, ptr %10, align 4
  %55 = add i32 %54, 1
  store i32 %55, ptr %10, align 4
  br label %56

56:                                               ; preds = %48, %43
  br label %111

57:                                               ; preds = %22, %22, %22, %22, %22
  br label %111

58:                                               ; preds = %22
  %59 = load ptr, ptr %8, align 8
  %60 = load i32, ptr @hf_gatt_nordic_dfu_control_point_number_of_packets, align 4
  %61 = load ptr, ptr %6, align 8
  %62 = load i32, ptr %10, align 4
  %63 = call ptr @proto_tree_add_item(ptr noundef %59, i32 noundef %60, ptr noundef %61, i32 noundef %62, i32 noundef 2, i32 noundef -2147483648)
  %64 = load i32, ptr %10, align 4
  %65 = add i32 %64, 2
  store i32 %65, ptr %10, align 4
  br label %111

66:                                               ; preds = %22
  %67 = load ptr, ptr %8, align 8
  %68 = load i32, ptr @hf_gatt_nordic_dfu_control_point_request_opcode, align 4
  %69 = load ptr, ptr %6, align 8
  %70 = load i32, ptr %10, align 4
  %71 = call ptr @proto_tree_add_item(ptr noundef %67, i32 noundef %68, ptr noundef %69, i32 noundef %70, i32 noundef 1, i32 noundef 0)
  %72 = load ptr, ptr %6, align 8
  %73 = load i32, ptr %10, align 4
  %74 = call zeroext i8 @tvb_get_uint8(ptr noundef %72, i32 noundef %73)
  store i8 %74, ptr %12, align 1
  %75 = load i32, ptr %10, align 4
  %76 = add i32 %75, 1
  store i32 %76, ptr %10, align 4
  %77 = load ptr, ptr %8, align 8
  %78 = load i32, ptr @hf_gatt_nordic_dfu_control_point_response_value, align 4
  %79 = load ptr, ptr %6, align 8
  %80 = load i32, ptr %10, align 4
  %81 = call ptr @proto_tree_add_item(ptr noundef %77, i32 noundef %78, ptr noundef %79, i32 noundef %80, i32 noundef 1, i32 noundef 0)
  %82 = load ptr, ptr %6, align 8
  %83 = load i32, ptr %10, align 4
  %84 = call zeroext i8 @tvb_get_uint8(ptr noundef %82, i32 noundef %83)
  store i8 %84, ptr %13, align 1
  %85 = load i32, ptr %10, align 4
  %86 = add i32 %85, 1
  store i32 %86, ptr %10, align 4
  %87 = load i8, ptr %12, align 1
  %88 = zext i8 %87 to i32
  %89 = icmp eq i32 %88, 7
  br i1 %89, label %90, label %102

90:                                               ; preds = %66
  %91 = load i8, ptr %13, align 1
  %92 = zext i8 %91 to i32
  %93 = icmp eq i32 %92, 1
  br i1 %93, label %94, label %102

94:                                               ; preds = %90
  %95 = load ptr, ptr %8, align 8
  %96 = load i32, ptr @hf_gatt_nordic_dfu_control_point_number_of_bytes, align 4
  %97 = load ptr, ptr %6, align 8
  %98 = load i32, ptr %10, align 4
  %99 = call ptr @proto_tree_add_item(ptr noundef %95, i32 noundef %96, ptr noundef %97, i32 noundef %98, i32 noundef 4, i32 noundef -2147483648)
  %100 = load i32, ptr %10, align 4
  %101 = add i32 %100, 4
  store i32 %101, ptr %10, align 4
  br label %102

102:                                              ; preds = %94, %90, %66
  br label %111

103:                                              ; preds = %22
  %104 = load ptr, ptr %8, align 8
  %105 = load i32, ptr @hf_gatt_nordic_dfu_control_point_number_of_bytes, align 4
  %106 = load ptr, ptr %6, align 8
  %107 = load i32, ptr %10, align 4
  %108 = call ptr @proto_tree_add_item(ptr noundef %104, i32 noundef %105, ptr noundef %106, i32 noundef %107, i32 noundef 4, i32 noundef -2147483648)
  %109 = load i32, ptr %10, align 4
  %110 = add i32 %109, 4
  store i32 %110, ptr %10, align 4
  br label %111

111:                                              ; preds = %22, %103, %102, %58, %57, %56, %35
  %112 = load ptr, ptr %6, align 8
  %113 = load i32, ptr %10, align 4
  %114 = call i32 @tvb_captured_length_remaining(ptr noundef %112, i32 noundef %113)
  %115 = icmp sgt i32 %114, 0
  br i1 %115, label %116, label %124

116:                                              ; preds = %111
  %117 = load ptr, ptr %8, align 8
  %118 = load ptr, ptr %7, align 8
  %119 = load ptr, ptr %6, align 8
  %120 = load i32, ptr %10, align 4
  %121 = call ptr @proto_tree_add_expert(ptr noundef %117, ptr noundef %118, ptr noundef @ei_btatt_unexpected_data, ptr noundef %119, i32 noundef %120, i32 noundef -1)
  %122 = load ptr, ptr %6, align 8
  %123 = call i32 @tvb_captured_length(ptr noundef %122)
  store i32 %123, ptr %10, align 4
  br label %124

124:                                              ; preds = %116, %111
  %125 = load i32, ptr %10, align 4
  store i32 %125, ptr %5, align 4
  store i32 1, ptr %15, align 4
  br label %126

126:                                              ; preds = %124, %21
  call void @llvm.lifetime.end.p0(i64 8, ptr %14) #12
  call void @llvm.lifetime.end.p0(i64 1, ptr %13) #12
  call void @llvm.lifetime.end.p0(i64 1, ptr %12) #12
  call void @llvm.lifetime.end.p0(i64 1, ptr %11) #12
  call void @llvm.lifetime.end.p0(i64 4, ptr %10) #12
  %127 = load i32, ptr %5, align 4
  ret i32 %127
}