; Function Attrs: null_pointer_is_valid sspstrong uwtable
define internal i32 @dissect_btgatt_nordic_dfu_control_point(ptr noundef %0, ptr noundef %1, ptr noundef %2, ptr noundef readonly captures(none) %3) #1 {
  %5 = getelementptr inbounds nuw i8, ptr %3, i64 8
  %6 = load i8, ptr %5, align 8
  %.fr56 = freeze i8 %6
  %7 = and i8 %.fr56, -7
  %switch.selectcmp.i.i = icmp eq i8 %7, 8
  br i1 %switch.selectcmp.i.i, label %45, label %switch.early.test

switch.early.test:                                ; preds = %4
  switch i8 %.fr56, label %8 [
    i8 30, label %45
    i8 19, label %45
  ]

8:                                                ; preds = %switch.early.test
  %9 = load i32, ptr @hf_gatt_nordic_dfu_control_point_opcode, align 4
  %10 = tail call ptr @proto_tree_add_item(ptr noundef %2, i32 noundef %9, ptr noundef %0, i32 noundef 0, i32 noundef 1, i32 noundef 0)
  %11 = tail call zeroext i8 @tvb_get_uint8(ptr noundef %0, i32 noundef 0)
  switch i8 %11, label %39 [
    i8 1, label %12
    i8 2, label %15
    i8 17, label %36
    i8 16, label %24
    i8 8, label %21
  ]

12:                                               ; preds = %8
  %13 = load i32, ptr @hf_gatt_nordic_dfu_control_point_image_type, align 4
  %14 = tail call ptr @proto_tree_add_item(ptr noundef %2, i32 noundef %13, ptr noundef %0, i32 noundef 1, i32 noundef 1, i32 noundef 0)
  br label %39

15:                                               ; preds = %8
  %16 = tail call i32 @tvb_reported_length_remaining(ptr noundef %0, i32 noundef 1)
  %17 = icmp sgt i32 %16, 0
  br i1 %17, label %18, label %39

18:                                               ; preds = %15
  %19 = load i32, ptr @hf_gatt_nordic_dfu_control_point_init_packet, align 4
  %20 = tail call ptr @proto_tree_add_item(ptr noundef %2, i32 noundef %19, ptr noundef %0, i32 noundef 1, i32 noundef 1, i32 noundef 0)
  br label %39

21:                                               ; preds = %8
  %22 = load i32, ptr @hf_gatt_nordic_dfu_control_point_number_of_packets, align 4
  %23 = tail call ptr @proto_tree_add_item(ptr noundef %2, i32 noundef %22, ptr noundef %0, i32 noundef 1, i32 noundef 2, i32 noundef -2147483648)
  br label %39

24:                                               ; preds = %8
  %25 = load i32, ptr @hf_gatt_nordic_dfu_control_point_request_opcode, align 4
  %26 = tail call ptr @proto_tree_add_item(ptr noundef %2, i32 noundef %25, ptr noundef %0, i32 noundef 1, i32 noundef 1, i32 noundef 0)
  %27 = tail call zeroext i8 @tvb_get_uint8(ptr noundef %0, i32 noundef 1)
  %28 = load i32, ptr @hf_gatt_nordic_dfu_control_point_response_value, align 4
  %29 = tail call ptr @proto_tree_add_item(ptr noundef %2, i32 noundef %28, ptr noundef %0, i32 noundef 2, i32 noundef 1, i32 noundef 0)
  %30 = tail call zeroext i8 @tvb_get_uint8(ptr noundef %0, i32 noundef 2)
  %31 = icmp eq i8 %27, 7
  %32 = icmp eq i8 %30, 1
  %or.cond = select i1 %31, i1 %32, i1 false
  br i1 %or.cond, label %33, label %39

33:                                               ; preds = %24
  %34 = load i32, ptr @hf_gatt_nordic_dfu_control_point_number_of_bytes, align 4
  %35 = tail call ptr @proto_tree_add_item(ptr noundef %2, i32 noundef %34, ptr noundef %0, i32 noundef 3, i32 noundef 4, i32 noundef -2147483648)
  br label %39

36:                                               ; preds = %8
  %37 = load i32, ptr @hf_gatt_nordic_dfu_control_point_number_of_bytes, align 4
  %38 = tail call ptr @proto_tree_add_item(ptr noundef %2, i32 noundef %37, ptr noundef %0, i32 noundef 1, i32 noundef 4, i32 noundef -2147483648)
  br label %39

39:                                               ; preds = %24, %33, %15, %18, %36, %21, %12, %8
  %.055 = phi i32 [ 1, %8 ], [ 3, %21 ], [ 7, %33 ], [ 3, %24 ], [ 5, %36 ], [ 2, %18 ], [ 1, %15 ], [ 2, %12 ]
  %40 = tail call i32 @tvb_captured_length_remaining(ptr noundef %0, i32 noundef %.055)
  %41 = icmp sgt i32 %40, 0
  br i1 %41, label %42, label %45

42:                                               ; preds = %39
  %43 = tail call ptr @proto_tree_add_expert(ptr noundef %2, ptr noundef %1, ptr noundef nonnull @ei_btatt_unexpected_data, ptr noundef %0, i32 noundef %.055, i32 noundef -1)
  %44 = tail call i32 @tvb_captured_length(ptr noundef %0)
  br label %45

45:                                               ; preds = %switch.early.test, %switch.early.test, %4, %39, %42
  %.0 = phi i32 [ -1, %switch.early.test ], [ %44, %42 ], [ %.055, %39 ], [ -1, %4 ], [ -1, %switch.early.test ]
  ret i32 %.0
}